target datalayout = "e-m:e-p270:32:32-p271:32:32-p272:64:64-i64:64-i128:128-f80:128-n8:16:32:64-S128"
target triple = "x86_64-pc-linux-gnu"

@id_write = internal global i64 0, align 8
@rb_eTypeError = external global i64, align 8
@.str.320 = private unnamed_addr constant [39 x i8] c"%li\0B must have %li\0B method, %li\0B given\00", align 1

; Function Attrs: nounwind sspstrong uwtable
define internal void @must_respond_to(i64 noundef %0, i64 noundef %1, i64 noundef %2) #0 {
  %4 = alloca i64, align 8
  %5 = alloca i64, align 8
  %6 = alloca i64, align 8
  store i64 %0, ptr %4, align 8, !tbaa !32
  store i64 %1, ptr %5, align 8, !tbaa !32
  store i64 %2, ptr %6, align 8, !tbaa !32
  %7 = load i64, ptr %5, align 8, !tbaa !32
  %8 = load i64, ptr %4, align 8, !tbaa !32
  %9 = call i32 @rb_respond_to(i64 noundef %7, i64 noundef %8)
  %10 = icmp ne i32 %9, 0
  br i1 %10, label %19, label %11

11:                                               ; preds = %3
  %12 = load i64, ptr @rb_eTypeError, align 8, !tbaa !32
  %13 = load i64, ptr %6, align 8, !tbaa !32
  %14 = call i64 @rb_id2str(i64 noundef %13)
  %15 = load i64, ptr %4, align 8, !tbaa !32
  %16 = call i64 @rb_id2str(i64 noundef %15)
  %17 = load i64, ptr %5, align 8, !tbaa !32
  %18 = call i64 @rb_obj_class(i64 noundef %17)
  call void (i64, ptr, ...) @rb_raise(i64 noundef %12, ptr noundef @.str.320, i64 noundef %14, i64 noundef %16, i64 noundef %18) #31
  unreachable

19:                                               ; preds = %3
  ret void
}

; Function Attrs: nounwind sspstrong uwtable
define internal void @stderr_setter(i64 noundef %0, i64 noundef %1, ptr noundef %2) #0 {
  %4 = alloca i64, align 8
  %5 = alloca i64, align 8
  %6 = alloca ptr, align 8
  store i64 %0, ptr %4, align 8, !tbaa !32
  store i64 %1, ptr %5, align 8, !tbaa !32
  store ptr %2, ptr %6, align 8, !tbaa !90
  %7 = load i64, ptr @id_write, align 8, !tbaa !32
  %8 = load i64, ptr %4, align 8, !tbaa !32
  %9 = load i64, ptr %5, align 8, !tbaa !32
  call void @must_respond_to(i64 noundef %7, i64 noundef %8, i64 noundef %9)
  %10 = load i64, ptr %4, align 8, !tbaa !32
  call void @rb_ractor_stderr_set(i64 noundef %10)
  ret void
}