; Function Attrs: nounwind sspstrong uwtable
define internal void @stderr_setter(i64 noundef %0, i64 noundef %1, ptr readnone captures(none) %2) #0 {
  %4 = load i64, ptr @id_write, align 8, !tbaa !23
  %5 = tail call i32 @rb_respond_to(i64 noundef %0, i64 noundef %4) #28
  %.not.i = icmp eq i32 %5, 0
  br i1 %.not.i, label %6, label %must_respond_to.exit

6:                                                ; preds = %3
  %7 = load i64, ptr @rb_eTypeError, align 8, !tbaa !23
  %8 = tail call i64 @rb_id2str(i64 noundef %1) #28
  %9 = tail call i64 @rb_id2str(i64 noundef %4) #28
  %10 = tail call i64 @rb_obj_class(i64 noundef %0) #28
  tail call void (i64, ptr, ...) @rb_raise(i64 noundef %7, ptr noundef nonnull @.str.320, i64 noundef %8, i64 noundef %9, i64 noundef %10) #30
  unreachable

must_respond_to.exit:                             ; preds = %3
  tail call void @rb_ractor_stderr_set(i64 noundef %0) #28
  ret void
}